target datalayout = "e-m:e-p270:32:32-p271:32:32-p272:64:64-i64:64-i128:128-f80:128-n8:16:32:64-S128"
target triple = "x86_64-pc-linux-gnu"

%struct.DdManager = type { %struct.DdNode, ptr, ptr, ptr, ptr, ptr, ptr, ptr, i32, i32, double, double, double, i32, i32, i32, i32, i32, i32, ptr, ptr, %struct.DdSubtable, i32, i32, i32, i32, i32, i32, i32, double, i32, i32, i32, ptr, i64, double, i32, ptr, ptr, ptr, ptr, ptr, ptr, ptr, i32, ptr, ptr, ptr, ptr, ptr, ptr, i32, i32, i32, double, i32, i32, i32, i32, double, double, i32, i32, i32, i32, i32, i32, i32, i32, i32, ptr, ptr, i32, i32, i32, i32, i32, i32, ptr, ptr, ptr, ptr, ptr, ptr, ptr, ptr, i32, i64, i64, i64, i32, i64, i64, double, double, double, double, double, double, i32, ptr, ptr, i64 }
%struct.DdNode = type { i32, i32, ptr, %union.anon, i64 }
%union.anon = type { %struct.DdChildren }
%struct.DdChildren = type { ptr, ptr }
%struct.DdSubtable = type { ptr, i32, i32, i32, i32, i32, i32, i32, i32, i32, i32, i32 }

; Function Attrs: nounwind uwtable
define ptr @Cudd_addXor(ptr noundef %0, ptr noundef %1, ptr noundef %2) #0 {
  %4 = alloca ptr, align 8
  %5 = alloca ptr, align 8
  %6 = alloca ptr, align 8
  %7 = alloca ptr, align 8
  %8 = alloca ptr, align 8
  %9 = alloca ptr, align 8
  %10 = alloca i32, align 4
  store ptr %0, ptr %5, align 8, !tbaa !3
  store ptr %1, ptr %6, align 8, !tbaa !35
  store ptr %2, ptr %7, align 8, !tbaa !35
  call void @llvm.lifetime.start.p0(i64 8, ptr %8) #4
  call void @llvm.lifetime.start.p0(i64 8, ptr %9) #4
  %11 = load ptr, ptr %6, align 8, !tbaa !35
  %12 = load ptr, ptr %11, align 8, !tbaa !9
  store ptr %12, ptr %8, align 8, !tbaa !9
  %13 = load ptr, ptr %7, align 8, !tbaa !35
  %14 = load ptr, ptr %13, align 8, !tbaa !9
  store ptr %14, ptr %9, align 8, !tbaa !9
  %15 = load ptr, ptr %8, align 8, !tbaa !9
  %16 = load ptr, ptr %9, align 8, !tbaa !9
  %17 = icmp eq ptr %15, %16
  br i1 %17, label %18, label %22

18:                                               ; preds = %3
  %19 = load ptr, ptr %5, align 8, !tbaa !3
  %20 = getelementptr inbounds nuw %struct.DdManager, ptr %19, i32 0, i32 2
  %21 = load ptr, ptr %20, align 8, !tbaa !36
  store ptr %21, ptr %4, align 8
  store i32 1, ptr %10, align 4
  br label %78

22:                                               ; preds = %3
  %23 = load ptr, ptr %8, align 8, !tbaa !9
  %24 = load ptr, ptr %5, align 8, !tbaa !3
  %25 = getelementptr inbounds nuw %struct.DdManager, ptr %24, i32 0, i32 1
  %26 = load ptr, ptr %25, align 8, !tbaa !38
  %27 = icmp eq ptr %23, %26
  br i1 %27, label %28, label %38

28:                                               ; preds = %22
  %29 = load ptr, ptr %9, align 8, !tbaa !9
  %30 = load ptr, ptr %5, align 8, !tbaa !3
  %31 = getelementptr inbounds nuw %struct.DdManager, ptr %30, i32 0, i32 2
  %32 = load ptr, ptr %31, align 8, !tbaa !36
  %33 = icmp eq ptr %29, %32
  br i1 %33, label %34, label %38

34:                                               ; preds = %28
  %35 = load ptr, ptr %5, align 8, !tbaa !3
  %36 = getelementptr inbounds nuw %struct.DdManager, ptr %35, i32 0, i32 1
  %37 = load ptr, ptr %36, align 8, !tbaa !38
  store ptr %37, ptr %4, align 8
  store i32 1, ptr %10, align 4
  br label %78

38:                                               ; preds = %28, %22
  %39 = load ptr, ptr %9, align 8, !tbaa !9
  %40 = load ptr, ptr %5, align 8, !tbaa !3
  %41 = getelementptr inbounds nuw %struct.DdManager, ptr %40, i32 0, i32 1
  %42 = load ptr, ptr %41, align 8, !tbaa !38
  %43 = icmp eq ptr %39, %42
  br i1 %43, label %44, label %54

44:                                               ; preds = %38
  %45 = load ptr, ptr %8, align 8, !tbaa !9
  %46 = load ptr, ptr %5, align 8, !tbaa !3
  %47 = getelementptr inbounds nuw %struct.DdManager, ptr %46, i32 0, i32 2
  %48 = load ptr, ptr %47, align 8, !tbaa !36
  %49 = icmp eq ptr %45, %48
  br i1 %49, label %50, label %54

50:                                               ; preds = %44
  %51 = load ptr, ptr %5, align 8, !tbaa !3
  %52 = getelementptr inbounds nuw %struct.DdManager, ptr %51, i32 0, i32 1
  %53 = load ptr, ptr %52, align 8, !tbaa !38
  store ptr %53, ptr %4, align 8
  store i32 1, ptr %10, align 4
  br label %78

54:                                               ; preds = %44, %38
  %55 = load ptr, ptr %8, align 8, !tbaa !9
  %56 = getelementptr inbounds nuw %struct.DdNode, ptr %55, i32 0, i32 0
  %57 = load i32, ptr %56, align 8, !tbaa !30
  %58 = icmp eq i32 %57, 2147483647
  br i1 %58, label %59, label %68

59:                                               ; preds = %54
  %60 = load ptr, ptr %9, align 8, !tbaa !9
  %61 = getelementptr inbounds nuw %struct.DdNode, ptr %60, i32 0, i32 0
  %62 = load i32, ptr %61, align 8, !tbaa !30
  %63 = icmp eq i32 %62, 2147483647
  br i1 %63, label %64, label %68

64:                                               ; preds = %59
  %65 = load ptr, ptr %5, align 8, !tbaa !3
  %66 = getelementptr inbounds nuw %struct.DdManager, ptr %65, i32 0, i32 2
  %67 = load ptr, ptr %66, align 8, !tbaa !36
  store ptr %67, ptr %4, align 8
  store i32 1, ptr %10, align 4
  br label %78

68:                                               ; preds = %59, %54
  %69 = load ptr, ptr %8, align 8, !tbaa !9
  %70 = load ptr, ptr %9, align 8, !tbaa !9
  %71 = icmp ugt ptr %69, %70
  br i1 %71, label %72, label %77

72:                                               ; preds = %68
  %73 = load ptr, ptr %9, align 8, !tbaa !9
  %74 = load ptr, ptr %6, align 8, !tbaa !35
  store ptr %73, ptr %74, align 8, !tbaa !9
  %75 = load ptr, ptr %8, align 8, !tbaa !9
  %76 = load ptr, ptr %7, align 8, !tbaa !35
  store ptr %75, ptr %76, align 8, !tbaa !9
  br label %77

77:                                               ; preds = %72, %68
  store ptr null, ptr %4, align 8
  store i32 1, ptr %10, align 4
  br label %78

78:                                               ; preds = %77, %64, %50, %34, %18
  call void @llvm.lifetime.end.p0(i64 8, ptr %9) #4
  call void @llvm.lifetime.end.p0(i64 8, ptr %8) #4
  %79 = load ptr, ptr %4, align 8
  ret ptr %79
}