; Function Attrs: mustprogress nofree norecurse nosync nounwind willreturn memory(read, argmem: readwrite, inaccessiblemem: none) uwtable
define ptr @Cudd_addXor(ptr noundef readonly captures(none) %0, ptr noundef captures(none) %1, ptr noundef captures(none) %2) local_unnamed_addr #3 {
  %4 = load ptr, ptr %1, align 8, !tbaa !26
  %5 = load ptr, ptr %2, align 8, !tbaa !26
  %6 = icmp eq ptr %4, %5
  br i1 %6, label %7, label %10

7:                                                ; preds = %3
  %8 = getelementptr inbounds nuw i8, ptr %0, i64 48
  %9 = load ptr, ptr %8, align 8, !tbaa !32
  br label %36

10:                                               ; preds = %3
  %11 = getelementptr inbounds nuw i8, ptr %0, i64 40
  %12 = load ptr, ptr %11, align 8, !tbaa !33
  %13 = icmp eq ptr %4, %12
  br i1 %13, label %14, label %18

14:                                               ; preds = %10
  %15 = getelementptr inbounds nuw i8, ptr %0, i64 48
  %16 = load ptr, ptr %15, align 8, !tbaa !32
  %17 = icmp eq ptr %5, %16
  br i1 %17, label %36, label %18

18:                                               ; preds = %14, %10
  %19 = icmp eq ptr %5, %12
  br i1 %19, label %20, label %24

20:                                               ; preds = %18
  %21 = getelementptr inbounds nuw i8, ptr %0, i64 48
  %22 = load ptr, ptr %21, align 8, !tbaa !32
  %23 = icmp eq ptr %4, %22
  br i1 %23, label %36, label %24

24:                                               ; preds = %20, %18
  %25 = load i32, ptr %4, align 8, !tbaa !27
  %26 = icmp eq i32 %25, 2147483647
  br i1 %26, label %27, label %33

27:                                               ; preds = %24
  %28 = load i32, ptr %5, align 8, !tbaa !27
  %29 = icmp eq i32 %28, 2147483647
  br i1 %29, label %30, label %33

30:                                               ; preds = %27
  %31 = getelementptr inbounds nuw i8, ptr %0, i64 48
  %32 = load ptr, ptr %31, align 8, !tbaa !32
  br label %36

33:                                               ; preds = %27, %24
  %34 = icmp ugt ptr %4, %5
  br i1 %34, label %35, label %36

35:                                               ; preds = %33
  store ptr %5, ptr %1, align 8, !tbaa !26
  store ptr %4, ptr %2, align 8, !tbaa !26
  br label %36

36:                                               ; preds = %33, %35, %20, %14, %30, %7
  %.0 = phi ptr [ %9, %7 ], [ %32, %30 ], [ %12, %14 ], [ %12, %20 ], [ null, %35 ], [ null, %33 ]
  ret ptr %.0
}